target datalayout = "e-m:e-p270:32:32-p271:32:32-p272:64:64-i64:64-i128:128-f80:128-n8:16:32:64-S128"
target triple = "x86_64-pc-linux-gnu"

%struct.PQArgBlock = type { i32, i32, %union.anon }
%union.anon = type { ptr }
%struct.pg_conn = type { ptr, ptr, ptr, ptr, ptr, ptr, ptr, ptr, ptr, ptr, ptr, ptr, ptr, ptr, ptr, ptr, ptr, ptr, ptr, ptr, ptr, ptr, ptr, ptr, ptr, ptr, ptr, ptr, ptr, ptr, ptr, ptr, ptr, ptr, ptr, ptr, ptr, ptr, ptr, ptr, ptr, ptr, ptr, i8, ptr, i32, %struct.PGNoticeHooks, ptr, i32, i32, i32, i32, i32, [6 x i8], i8, i8, i32, i8, i8, i32, i8, i32, ptr, ptr, i32, i32, ptr, ptr, ptr, ptr, ptr, i32, %struct.SockAddr, %struct.SockAddr, i32, i32, i8, i8, i8, i8, i8, i8, ptr, i8, i32, [1 x ptr], i8, i8, ptr, ptr, i32, i32, i32, i8, i8, i32, i32, ptr, i8, i64, ptr, i64, ptr, i32, i32, ptr, i32, i8, i32, i32, i32, i32, ptr, %struct.pg_prng_state, ptr, i32, i32, i32, i32, ptr, i32, i32, i32, i32, ptr, i32, ptr, i8, ptr, ptr, ptr, i32, i8, i8, i8, i8, i8, i8, i8, i8, %struct.PQExpBufferData, i32, %struct.PQExpBufferData }
%struct.PGNoticeHooks = type { ptr, ptr, ptr, ptr }
%struct.SockAddr = type { %struct.sockaddr_storage, i32 }
%struct.sockaddr_storage = type { i16, [118 x i8], i64 }
%struct.pg_prng_state = type { i64, i64 }
%struct.PQExpBufferData = type { ptr, i64, i64 }
%struct.pgLobjfuncs = type { i32, i32, i32, i32, i32, i32, i32, i32, i32, i32, i32, i32, i32 }

@.str.5 = private unnamed_addr constant [43 x i8] c"argument of lo_write exceeds integer range\00", align 1

; Function Attrs: nounwind uwtable
define i32 @lo_write(ptr noundef %0, i32 noundef %1, ptr noundef %2, i64 noundef %3) #0 {
  %5 = alloca i32, align 4
  %6 = alloca ptr, align 8
  %7 = alloca i32, align 4
  %8 = alloca ptr, align 8
  %9 = alloca i64, align 8
  %10 = alloca [2 x %struct.PQArgBlock], align 16
  %11 = alloca ptr, align 8
  %12 = alloca i32, align 4
  %13 = alloca i32, align 4
  %14 = alloca i32, align 4
  %15 = alloca i32, align 4
  store ptr %0, ptr %6, align 8
  store i32 %1, ptr %7, align 4
  store ptr %2, ptr %8, align 8
  store i64 %3, ptr %9, align 8
  call void @llvm.lifetime.start.p0(i64 32, ptr %10) #10
  call void @llvm.lifetime.start.p0(i64 8, ptr %11) #10
  call void @llvm.lifetime.start.p0(i64 4, ptr %12) #10
  call void @llvm.lifetime.start.p0(i64 4, ptr %13) #10
  %16 = load ptr, ptr %6, align 8
  %17 = call i32 @lo_initialize(ptr noundef %16)
  %18 = icmp slt i32 %17, 0
  br i1 %18, label %19, label %20

19:                                               ; preds = %4
  store i32 -1, ptr %5, align 4
  store i32 1, ptr %14, align 4
  br label %61

20:                                               ; preds = %4
  %21 = load i64, ptr %9, align 8
  %22 = icmp ugt i64 %21, 2147483647
  br i1 %22, label %23, label %25

23:                                               ; preds = %20
  %24 = load ptr, ptr %6, align 8
  call void (ptr, ptr, ...) @libpq_append_conn_error(ptr noundef %24, ptr noundef @.str.5)
  store i32 -1, ptr %5, align 4
  store i32 1, ptr %14, align 4
  br label %61

25:                                               ; preds = %20
  %26 = getelementptr inbounds [2 x %struct.PQArgBlock], ptr %10, i64 0, i64 0
  %27 = getelementptr inbounds nuw %struct.PQArgBlock, ptr %26, i32 0, i32 1
  store i32 1, ptr %27, align 4
  %28 = getelementptr inbounds [2 x %struct.PQArgBlock], ptr %10, i64 0, i64 0
  %29 = getelementptr inbounds nuw %struct.PQArgBlock, ptr %28, i32 0, i32 0
  store i32 4, ptr %29, align 16
  %30 = load i32, ptr %7, align 4
  %31 = getelementptr inbounds [2 x %struct.PQArgBlock], ptr %10, i64 0, i64 0
  %32 = getelementptr inbounds nuw %struct.PQArgBlock, ptr %31, i32 0, i32 2
  store i32 %30, ptr %32, align 8
  %33 = getelementptr inbounds [2 x %struct.PQArgBlock], ptr %10, i64 0, i64 1
  %34 = getelementptr inbounds nuw %struct.PQArgBlock, ptr %33, i32 0, i32 1
  store i32 0, ptr %34, align 4
  %35 = load i64, ptr %9, align 8
  %36 = trunc i64 %35 to i32
  %37 = getelementptr inbounds [2 x %struct.PQArgBlock], ptr %10, i64 0, i64 1
  %38 = getelementptr inbounds nuw %struct.PQArgBlock, ptr %37, i32 0, i32 0
  store i32 %36, ptr %38, align 16
  br label %39

39:                                               ; preds = %25
  br label %40

40:                                               ; preds = %39
  br label %41

41:                                               ; preds = %40
  store i32 1, ptr %15, align 4
  %42 = load ptr, ptr %8, align 8
  %43 = getelementptr inbounds [2 x %struct.PQArgBlock], ptr %10, i64 0, i64 1
  %44 = getelementptr inbounds nuw %struct.PQArgBlock, ptr %43, i32 0, i32 2
  store ptr %42, ptr %44, align 8
  %45 = load ptr, ptr %6, align 8
  %46 = load ptr, ptr %6, align 8
  %47 = getelementptr inbounds nuw %struct.pg_conn, ptr %46, i32 0, i32 112
  %48 = load ptr, ptr %47, align 8
  %49 = getelementptr inbounds nuw %struct.pgLobjfuncs, ptr %48, i32 0, i32 12
  %50 = load i32, ptr %49, align 4
  %51 = getelementptr inbounds [2 x %struct.PQArgBlock], ptr %10, i64 0, i64 0
  %52 = call ptr @PQfn(ptr noundef %45, i32 noundef %50, ptr noundef %13, ptr noundef %12, i32 noundef 1, ptr noundef %51, i32 noundef 2)
  store ptr %52, ptr %11, align 8
  %53 = load ptr, ptr %11, align 8
  %54 = call i32 @PQresultStatus(ptr noundef %53)
  %55 = icmp eq i32 %54, 1
  br i1 %55, label %56, label %59

56:                                               ; preds = %41
  %57 = load ptr, ptr %11, align 8
  call void @PQclear(ptr noundef %57)
  %58 = load i32, ptr %13, align 4
  store i32 %58, ptr %5, align 4
  store i32 1, ptr %14, align 4
  br label %61

59:                                               ; preds = %41
  %60 = load ptr, ptr %11, align 8
  call void @PQclear(ptr noundef %60)
  store i32 -1, ptr %5, align 4
  store i32 1, ptr %14, align 4
  br label %61

61:                                               ; preds = %59, %56, %23, %19
  call void @llvm.lifetime.end.p0(i64 4, ptr %13) #10
  call void @llvm.lifetime.end.p0(i64 4, ptr %12) #10
  call void @llvm.lifetime.end.p0(i64 8, ptr %11) #10
  call void @llvm.lifetime.end.p0(i64 32, ptr %10) #10
  %62 = load i32, ptr %5, align 4
  ret i32 %62
}