; Function Attrs: nounwind uwtable
define i32 @lo_write(ptr noundef %0, i32 noundef %1, ptr noundef %2, i64 noundef %3) local_unnamed_addr #0 {
  %5 = alloca [2 x %struct.PQArgBlock], align 16
  %6 = alloca i32, align 4
  %7 = alloca i32, align 4
  call void @llvm.lifetime.start.p0(i64 32, ptr nonnull %5) #10
  call void @llvm.lifetime.start.p0(i64 4, ptr nonnull %6) #10
  call void @llvm.lifetime.start.p0(i64 4, ptr nonnull %7) #10
  %8 = tail call fastcc i32 @lo_initialize(ptr noundef %0)
  %9 = icmp slt i32 %8, 0
  br i1 %9, label %28, label %10

10:                                               ; preds = %4
  %11 = icmp ugt i64 %3, 2147483647
  br i1 %11, label %12, label %13

12:                                               ; preds = %10
  tail call void (ptr, ptr, ...) @libpq_append_conn_error(ptr noundef %0, ptr noundef nonnull @.str.5) #10
  br label %28

13:                                               ; preds = %10
  %14 = getelementptr inbounds nuw i8, ptr %5, i64 4
  store i32 1, ptr %14, align 4
  store i32 4, ptr %5, align 16
  %15 = getelementptr inbounds nuw i8, ptr %5, i64 8
  store i32 %1, ptr %15, align 8
  %16 = getelementptr inbounds nuw i8, ptr %5, i64 16
  %17 = getelementptr inbounds nuw i8, ptr %5, i64 20
  store i32 0, ptr %17, align 4
  %18 = trunc nuw nsw i64 %3 to i32
  store i32 %18, ptr %16, align 16
  %19 = getelementptr inbounds nuw i8, ptr %5, i64 24
  store ptr %2, ptr %19, align 8
  %20 = getelementptr inbounds nuw i8, ptr %0, i64 976
  %21 = load ptr, ptr %20, align 8
  %22 = getelementptr inbounds nuw i8, ptr %21, i64 48
  %23 = load i32, ptr %22, align 4
  %24 = call ptr @PQfn(ptr noundef %0, i32 noundef %23, ptr noundef nonnull %7, ptr noundef nonnull %6, i32 noundef 1, ptr noundef nonnull %5, i32 noundef 2) #10
  %25 = call i32 @PQresultStatus(ptr noundef %24) #10
  %26 = icmp eq i32 %25, 1
  call void @PQclear(ptr noundef %24) #10
  %27 = load i32, ptr %7, align 4
  %spec.select = select i1 %26, i32 %27, i32 -1
  br label %28

28:                                               ; preds = %13, %4, %12
  %.0 = phi i32 [ -1, %12 ], [ -1, %4 ], [ %spec.select, %13 ]
  call void @llvm.lifetime.end.p0(i64 4, ptr nonnull %7) #10
  call void @llvm.lifetime.end.p0(i64 4, ptr nonnull %6) #10
  call void @llvm.lifetime.end.p0(i64 32, ptr nonnull %5) #10
  ret i32 %.0
}